target datalayout = "e-m:e-p270:32:32-p271:32:32-p272:64:64-i64:64-i128:128-f80:128-n8:16:32:64-S128"
target triple = "x86_64-pc-linux-gnu"

%"class.VrmlTranslator::Scanner" = type { ptr, ptr, ptr, ptr, i8, i32, i32, i32, i32, %"class.VrmlTranslator::StartStates", %"class.VrmlTranslator::KeywordMap", ptr, ptr, i32, i32, ptr, ptr, i32, i32, i32, i32, i32, ptr }
%"class.VrmlTranslator::StartStates" = type { ptr, ptr }
%"class.VrmlTranslator::KeywordMap" = type { ptr, ptr }

@_ZTVN14VrmlTranslator11StartStatesE = linkonce_odr unnamed_addr constant { [4 x ptr] } { [4 x ptr] [ptr null, ptr @_ZTIN14VrmlTranslator11StartStatesE, ptr @_ZN14VrmlTranslator11StartStatesD2Ev, ptr @_ZN14VrmlTranslator11StartStatesD0Ev] }, comdat, align 8
@_ZTVN14VrmlTranslator10KeywordMapE = linkonce_odr unnamed_addr constant { [4 x ptr] } { [4 x ptr] [ptr null, ptr @_ZTIN14VrmlTranslator10KeywordMapE, ptr @_ZN14VrmlTranslator10KeywordMapD2Ev, ptr @_ZN14VrmlTranslator10KeywordMapD0Ev] }, comdat, align 8
@_ZN14VrmlTranslator6BufferC1EP8_IO_FILEb = unnamed_addr alias void (ptr, ptr, i1), ptr @_ZN14VrmlTranslator6BufferC2EP8_IO_FILEb

; Function Attrs: mustprogress uwtable
define linkonce_odr void @_ZN14VrmlTranslator10KeywordMapC2Ev(ptr noundef nonnull align 8 dereferenceable(16) %0) unnamed_addr #1 comdat align 2 {
  %2 = alloca ptr, align 8
  store ptr %0, ptr %2, align 8
  %3 = load ptr, ptr %2, align 8
  store ptr getelementptr inbounds ({ [4 x ptr] }, ptr @_ZTVN14VrmlTranslator10KeywordMapE, i32 0, i32 0, i32 2), ptr %3, align 8
  %4 = call noalias noundef nonnull ptr @_Znam(i64 noundef 1024) #14
  %5 = getelementptr inbounds %"class.VrmlTranslator::KeywordMap", ptr %3, i32 0, i32 1
  store ptr %4, ptr %5, align 8
  %6 = getelementptr inbounds %"class.VrmlTranslator::KeywordMap", ptr %3, i32 0, i32 1
  %7 = load ptr, ptr %6, align 8
  call void @llvm.memset.p0.i64(ptr align 8 %7, i8 0, i64 1024, i1 false)
  ret void
}

; Function Attrs: mustprogress uwtable
define linkonce_odr void @_ZN14VrmlTranslator11StartStatesC2Ev(ptr noundef nonnull align 8 dereferenceable(16) %0) unnamed_addr #1 comdat align 2 {
  %2 = alloca ptr, align 8
  store ptr %0, ptr %2, align 8
  %3 = load ptr, ptr %2, align 8
  store ptr getelementptr inbounds ({ [4 x ptr] }, ptr @_ZTVN14VrmlTranslator11StartStatesE, i32 0, i32 0, i32 2), ptr %3, align 8
  %4 = call noalias noundef nonnull ptr @_Znam(i64 noundef 1024) #14
  %5 = getelementptr inbounds %"class.VrmlTranslator::StartStates", ptr %3, i32 0, i32 1
  store ptr %4, ptr %5, align 8
  %6 = getelementptr inbounds %"class.VrmlTranslator::StartStates", ptr %3, i32 0, i32 1
  %7 = load ptr, ptr %6, align 8
  call void @llvm.memset.p0.i64(ptr align 8 %7, i8 0, i64 1024, i1 false)
  ret void
}

; Function Attrs: mustprogress uwtable
define void @_ZN14VrmlTranslator7ScannerC2EP8_IO_FILE(ptr noundef nonnull align 8 dereferenceable(160) %0, ptr noundef %1) unnamed_addr #1 align 2 personality ptr @__gxx_personality_v0 {
  %3 = alloca ptr, align 8
  %4 = alloca ptr, align 8
  %5 = alloca ptr, align 8
  %6 = alloca i32, align 4
  store ptr %0, ptr %3, align 8
  store ptr %1, ptr %4, align 8
  %7 = load ptr, ptr %3, align 8
  %8 = getelementptr inbounds %"class.VrmlTranslator::Scanner", ptr %7, i32 0, i32 9
  call void @_ZN14VrmlTranslator11StartStatesC2Ev(ptr noundef nonnull align 8 dereferenceable(16) %8)
  %9 = getelementptr inbounds %"class.VrmlTranslator::Scanner", ptr %7, i32 0, i32 10
  invoke void @_ZN14VrmlTranslator10KeywordMapC2Ev(ptr noundef nonnull align 8 dereferenceable(16) %9)
          to label %10 unwind label %17

10:                                               ; preds = %2
  %11 = invoke noalias noundef nonnull ptr @_Znwm(i64 noundef 56) #14
          to label %12 unwind label %21

12:                                               ; preds = %10
  %13 = load ptr, ptr %4, align 8
  invoke void @_ZN14VrmlTranslator6BufferC1EP8_IO_FILEb(ptr noundef nonnull align 8 dereferenceable(49) %11, ptr noundef %13, i1 noundef zeroext true)
          to label %14 unwind label %25

14:                                               ; preds = %12
  %15 = getelementptr inbounds %"class.VrmlTranslator::Scanner", ptr %7, i32 0, i32 22
  store ptr %11, ptr %15, align 8
  invoke void @_ZN14VrmlTranslator7Scanner4InitEv(ptr noundef nonnull align 8 dereferenceable(160) %7)
          to label %16 unwind label %21

16:                                               ; preds = %14
  ret void

17:                                               ; preds = %2
  %18 = landingpad { ptr, i32 }
          cleanup
  %19 = extractvalue { ptr, i32 } %18, 0
  store ptr %19, ptr %5, align 8
  %20 = extractvalue { ptr, i32 } %18, 1
  store i32 %20, ptr %6, align 4
  br label %30

21:                                               ; preds = %14, %10
  %22 = landingpad { ptr, i32 }
          cleanup
  %23 = extractvalue { ptr, i32 } %22, 0
  store ptr %23, ptr %5, align 8
  %24 = extractvalue { ptr, i32 } %22, 1
  store i32 %24, ptr %6, align 4
  br label %29

25:                                               ; preds = %12
  %26 = landingpad { ptr, i32 }
          cleanup
  %27 = extractvalue { ptr, i32 } %26, 0
  store ptr %27, ptr %5, align 8
  %28 = extractvalue { ptr, i32 } %26, 1
  store i32 %28, ptr %6, align 4
  call void @_ZdlPv(ptr noundef %11) #13
  br label %29

29:                                               ; preds = %25, %21
  call void @_ZN14VrmlTranslator10KeywordMapD2Ev(ptr noundef nonnull align 8 dereferenceable(16) %9) #12
  br label %30

30:                                               ; preds = %29, %17
  call void @_ZN14VrmlTranslator11StartStatesD2Ev(ptr noundef nonnull align 8 dereferenceable(16) %8) #12
  br label %31

31:                                               ; preds = %30
  %32 = load ptr, ptr %5, align 8
  %33 = load i32, ptr %6, align 4
  %34 = insertvalue { ptr, i32 } poison, ptr %32, 0
  %35 = insertvalue { ptr, i32 } %34, i32 %33, 1
  resume { ptr, i32 } %35
}