; Function Attrs: mustprogress uwtable
define void @_ZN14VrmlTranslator7ScannerC2EP8_IO_FILE(ptr noundef nonnull align 8 dereferenceable(160) %0, ptr noundef %1) unnamed_addr #2 align 2 personality ptr @__gxx_personality_v0 {
  %3 = getelementptr inbounds i8, ptr %0, i64 56
  store ptr getelementptr inbounds ({ [4 x ptr] }, ptr @_ZTVN14VrmlTranslator11StartStatesE, i64 0, i32 0, i64 2), ptr %3, align 8
  %4 = tail call noalias noundef nonnull dereferenceable(1024) ptr @_Znam(i64 noundef 1024) #21
  %5 = getelementptr inbounds i8, ptr %0, i64 64
  store ptr %4, ptr %5, align 8
  tail call void @llvm.memset.p0.i64(ptr noundef nonnull align 8 dereferenceable(1024) %4, i8 0, i64 1024, i1 false)
  %6 = getelementptr inbounds i8, ptr %0, i64 72
  store ptr getelementptr inbounds ({ [4 x ptr] }, ptr @_ZTVN14VrmlTranslator10KeywordMapE, i64 0, i32 0, i64 2), ptr %6, align 8
  %7 = invoke noalias noundef nonnull dereferenceable(1024) ptr @_Znam(i64 noundef 1024) #21
          to label %8 unwind label %15

8:                                                ; preds = %2
  %9 = getelementptr inbounds i8, ptr %0, i64 80
  store ptr %7, ptr %9, align 8
  tail call void @llvm.memset.p0.i64(ptr noundef nonnull align 8 dereferenceable(1024) %7, i8 0, i64 1024, i1 false)
  %10 = invoke noalias noundef nonnull dereferenceable(56) ptr @_Znwm(i64 noundef 56) #21
          to label %11 unwind label %17

11:                                               ; preds = %8
  invoke void @_ZN14VrmlTranslator6BufferC1EP8_IO_FILEb(ptr noundef nonnull align 8 dereferenceable(49) %10, ptr noundef %1, i1 noundef zeroext true)
          to label %12 unwind label %19

12:                                               ; preds = %11
  %13 = getelementptr inbounds i8, ptr %0, i64 152
  store ptr %10, ptr %13, align 8
  invoke void @_ZN14VrmlTranslator7Scanner4InitEv(ptr noundef nonnull align 8 dereferenceable(160) %0)
          to label %14 unwind label %17

14:                                               ; preds = %12
  ret void

15:                                               ; preds = %2
  %16 = landingpad { ptr, i32 }
          cleanup
  br label %22

17:                                               ; preds = %12, %8
  %18 = landingpad { ptr, i32 }
          cleanup
  br label %21

19:                                               ; preds = %11
  %20 = landingpad { ptr, i32 }
          cleanup
  tail call void @_ZdlPv(ptr noundef nonnull %10) #20
  br label %21

21:                                               ; preds = %19, %17
  %.pn = phi { ptr, i32 } [ %18, %17 ], [ %20, %19 ]
  tail call void @_ZN14VrmlTranslator10KeywordMapD2Ev(ptr noundef nonnull align 8 dereferenceable(16) %6) #22
  br label %22

22:                                               ; preds = %21, %15
  %.pn.pn = phi { ptr, i32 } [ %.pn, %21 ], [ %16, %15 ]
  tail call void @_ZN14VrmlTranslator11StartStatesD2Ev(ptr noundef nonnull align 8 dereferenceable(16) %3) #22
  resume { ptr, i32 } %.pn.pn
}